; Function Attrs: mustprogress uwtable
define hidden void @_ZN5osgeo4proj5datum13PrimeMeridian24createREFERENCE_MERIDIANEv(ptr dead_on_unwind noalias writable sret(%"class.dropbox::oxygen::nn") align 8 %0) local_unnamed_addr #0 align 2 personality ptr @__gxx_personality_v0 {
  %2 = alloca %"class.osgeo::proj::util::PropertyMap", align 8
  %3 = alloca %"class.osgeo::proj::common::Angle", align 8
  call void @_ZN5osgeo4proj4util11PropertyMapC1Ev(ptr noundef nonnull align 8 dereferenceable(8) %2)
  %4 = invoke noundef nonnull align 8 dereferenceable(8) ptr @_ZN5osgeo4proj4util11PropertyMap3setERKNSt7__cxx1112basic_stringIcSt11char_traitsIcESaIcEEEPKc(ptr noundef nonnull align 8 dereferenceable(8) %2, ptr noundef nonnull align 8 dereferenceable(32) @_ZN5osgeo4proj6common16IdentifiedObject8NAME_KEYB5cxx11E, ptr noundef nonnull @.str.5)
          to label %5 unwind label %10

5:                                                ; preds = %1
  invoke void @_ZN5osgeo4proj6common5AngleC1Ed(ptr noundef nonnull align 8 dereferenceable(24) %3, double noundef 0.000000e+00)
          to label %6 unwind label %10

6:                                                ; preds = %5
  invoke void @_ZN5osgeo4proj5datum13PrimeMeridian14nn_make_sharedIS2_JRKNS0_6common5AngleEEEEN7dropbox6oxygen2nnISt10shared_ptrIT_EEEDpOT0_(ptr dead_on_unwind writable sret(%"class.dropbox::oxygen::nn") align 8 %0, ptr noundef nonnull align 8 dereferenceable(24) %3)
          to label %.noexc unwind label %12

.noexc:                                           ; preds = %6
  %7 = load ptr, ptr %0, align 8, !alias.scope !16
  invoke void @_ZN5osgeo4proj6common16IdentifiedObject13setPropertiesERKNS0_4util11PropertyMapE(ptr noundef nonnull align 8 dereferenceable(40) %7, ptr noundef nonnull align 8 dereferenceable(8) %4)
          to label %_ZN5osgeo4proj5datum13PrimeMeridian6createERKNS0_4util11PropertyMapERKNS0_6common5AngleE.exit unwind label %8

8:                                                ; preds = %.noexc
  %9 = landingpad { ptr, i32 }
          cleanup
  call void @_ZN7dropbox6oxygen2nnISt10shared_ptrIN5osgeo4proj5datum13PrimeMeridianEEED2Ev(ptr noundef nonnull align 8 dereferenceable(16) %0) #26
  br label %.body

_ZN5osgeo4proj5datum13PrimeMeridian6createERKNS0_4util11PropertyMapERKNS0_6common5AngleE.exit: ; preds = %.noexc
  call void @_ZN5osgeo4proj6common5AngleD1Ev(ptr noundef nonnull align 8 dereferenceable(24) %3) #26
  call void @_ZN5osgeo4proj4util11PropertyMapD1Ev(ptr noundef nonnull align 8 dereferenceable(8) %2) #26
  ret void

10:                                               ; preds = %5, %1
  %11 = landingpad { ptr, i32 }
          cleanup
  br label %14

12:                                               ; preds = %6
  %13 = landingpad { ptr, i32 }
          cleanup
  br label %.body

.body:                                            ; preds = %8, %12
  %eh.lpad-body = phi { ptr, i32 } [ %13, %12 ], [ %9, %8 ]
  call void @_ZN5osgeo4proj6common5AngleD1Ev(ptr noundef nonnull align 8 dereferenceable(24) %3) #26
  br label %14

14:                                               ; preds = %.body, %10
  %.pn = phi { ptr, i32 } [ %eh.lpad-body, %.body ], [ %11, %10 ]
  call void @_ZN5osgeo4proj4util11PropertyMapD1Ev(ptr noundef nonnull align 8 dereferenceable(8) %2) #26
  resume { ptr, i32 } %.pn
}